; Function Attrs: mustprogress uwtable
define internal void @_ZN4absl12_GLOBAL__N_159FixedArrayExceptionSafety_InitListConstructorWithAlloc_Test8TestBodyEv(ptr nocapture nonnull readnone align 8 %this) unnamed_addr #3 align 2 personality ptr @__gxx_personality_v0 {
entry:
  %ref.tmp = alloca %"class.std::initializer_list.89", align 8
  %ref.tmp2 = alloca %"class.std::initializer_list.89", align 8
  %ref.tmp3 = alloca [2 x %"class.testing::ThrowingValue"], align 4
  %ref.tmp19 = alloca %"class.std::initializer_list.89", align 8
  %ref.tmp20 = alloca [5 x %"class.testing::ThrowingValue"], align 4
  call void @llvm.memset.p0.i64(ptr noundef nonnull align 8 dereferenceable(16) %ref.tmp, i8 0, i64 16, i1 false)
  call void @_ZN7testing16TestThrowingCtorIN4absl10FixedArrayINS_13ThrowingValueILNS_8TypeSpecE0EEELm3ENS_17ThrowingAllocatorIS5_LNS_9AllocSpecE0EEEEEJSt16initializer_listIS5_EEEEvDpOT0_(ptr noundef nonnull align 8 dereferenceable(16) %ref.tmp)
  call void @_ZN7testing13ThrowingValueILNS_8TypeSpecE0EEC2Ev(ptr noundef nonnull align 4 dereferenceable(4) %ref.tmp3)
  %arrayinit.element = getelementptr inbounds i8, ptr %ref.tmp3, i64 4
  invoke void @_ZN7testing13ThrowingValueILNS_8TypeSpecE0EEC2Ev(ptr noundef nonnull align 4 dereferenceable(4) %arrayinit.element)
          to label %invoke.cont4 unwind label %lpad

invoke.cont4:                                     ; preds = %entry
  store ptr %ref.tmp3, ptr %ref.tmp2, align 8
  %_M_len = getelementptr inbounds i8, ptr %ref.tmp2, i64 8
  store i64 2, ptr %_M_len, align 8
  invoke void @_ZN7testing16TestThrowingCtorIN4absl10FixedArrayINS_13ThrowingValueILNS_8TypeSpecE0EEELm3ENS_17ThrowingAllocatorIS5_LNS_9AllocSpecE0EEEEEJSt16initializer_listIS5_EEEEvDpOT0_(ptr noundef nonnull align 8 dereferenceable(16) %ref.tmp2)
          to label %invoke.cont7 unwind label %lpad6

invoke.cont7:                                     ; preds = %invoke.cont4
  %0 = getelementptr inbounds i8, ptr %ref.tmp3, i64 8
  br label %arraydestroy.body8

arraydestroy.body8:                               ; preds = %_ZN7testing13ThrowingValueILNS_8TypeSpecE0EED2Ev.exit, %invoke.cont7
  %arraydestroy.elementPast9 = phi ptr [ %0, %invoke.cont7 ], [ %arraydestroy.element10, %_ZN7testing13ThrowingValueILNS_8TypeSpecE0EED2Ev.exit ]
  %arraydestroy.element10 = getelementptr inbounds i8, ptr %arraydestroy.elementPast9, i64 -4
  invoke void @_ZN7testing19exceptions_internal18ConstructorTracker16ObjectDestructedEPv(ptr noundef nonnull %arraydestroy.element10)
          to label %_ZN7testing13ThrowingValueILNS_8TypeSpecE0EED2Ev.exit unwind label %terminate.lpad.i.i

terminate.lpad.i.i:                               ; preds = %arraydestroy.body8
  %1 = landingpad { ptr, i32 }
          catch ptr null
  %2 = extractvalue { ptr, i32 } %1, 0
  call void @__clang_call_terminate(ptr %2) #21
  unreachable

_ZN7testing13ThrowingValueILNS_8TypeSpecE0EED2Ev.exit: ; preds = %arraydestroy.body8
  %arraydestroy.done11 = icmp eq ptr %arraydestroy.element10, %ref.tmp3
  br i1 %arraydestroy.done11, label %arraydestroy.done12, label %arraydestroy.body8

arraydestroy.done12:                              ; preds = %_ZN7testing13ThrowingValueILNS_8TypeSpecE0EED2Ev.exit
  call void @_ZN7testing13ThrowingValueILNS_8TypeSpecE0EEC2Ev(ptr noundef nonnull align 4 dereferenceable(4) %ref.tmp20)
  %arrayinit.element25 = getelementptr inbounds i8, ptr %ref.tmp20, i64 4
  invoke void @_ZN7testing13ThrowingValueILNS_8TypeSpecE0EEC2Ev(ptr noundef nonnull align 4 dereferenceable(4) %arrayinit.element25)
          to label %invoke.cont26 unwind label %lpad23

invoke.cont26:                                    ; preds = %arraydestroy.done12
  %arrayinit.element27 = getelementptr inbounds i8, ptr %ref.tmp20, i64 8
  invoke void @_ZN7testing13ThrowingValueILNS_8TypeSpecE0EEC2Ev(ptr noundef nonnull align 4 dereferenceable(4) %arrayinit.element27)
          to label %invoke.cont28 unwind label %lpad23

invoke.cont28:                                    ; preds = %invoke.cont26
  %arrayinit.element29 = getelementptr inbounds i8, ptr %ref.tmp20, i64 12
  invoke void @_ZN7testing13ThrowingValueILNS_8TypeSpecE0EEC2Ev(ptr noundef nonnull align 4 dereferenceable(4) %arrayinit.element29)
          to label %invoke.cont30 unwind label %lpad23

invoke.cont30:                                    ; preds = %invoke.cont28
  %arrayinit.element31 = getelementptr inbounds i8, ptr %ref.tmp20, i64 16
  invoke void @_ZN7testing13ThrowingValueILNS_8TypeSpecE0EEC2Ev(ptr noundef nonnull align 4 dereferenceable(4) %arrayinit.element31)
          to label %invoke.cont32 unwind label %lpad23

invoke.cont32:                                    ; preds = %invoke.cont30
  store ptr %ref.tmp20, ptr %ref.tmp19, align 8
  %_M_len41 = getelementptr inbounds i8, ptr %ref.tmp19, i64 8
  store i64 5, ptr %_M_len41, align 8
  invoke void @_ZN7testing16TestThrowingCtorIN4absl10FixedArrayINS_13ThrowingValueILNS_8TypeSpecE0EEELm3ENS_17ThrowingAllocatorIS5_LNS_9AllocSpecE0EEEEEJSt16initializer_listIS5_EEEEvDpOT0_(ptr noundef nonnull align 8 dereferenceable(16) %ref.tmp19)
          to label %invoke.cont43 unwind label %lpad42

invoke.cont43:                                    ; preds = %invoke.cont32
  %3 = getelementptr inbounds i8, ptr %ref.tmp20, i64 20
  br label %arraydestroy.body45

arraydestroy.body45:                              ; preds = %_ZN7testing13ThrowingValueILNS_8TypeSpecE0EED2Ev.exit3, %invoke.cont43
  %arraydestroy.elementPast46 = phi ptr [ %3, %invoke.cont43 ], [ %arraydestroy.element47, %_ZN7testing13ThrowingValueILNS_8TypeSpecE0EED2Ev.exit3 ]
  %arraydestroy.element47 = getelementptr inbounds i8, ptr %arraydestroy.elementPast46, i64 -4
  invoke void @_ZN7testing19exceptions_internal18ConstructorTracker16ObjectDestructedEPv(ptr noundef nonnull %arraydestroy.element47)
          to label %_ZN7testing13ThrowingValueILNS_8TypeSpecE0EED2Ev.exit3 unwind label %terminate.lpad.i.i2

terminate.lpad.i.i2:                              ; preds = %arraydestroy.body45
  %4 = landingpad { ptr, i32 }
          catch ptr null
  %5 = extractvalue { ptr, i32 } %4, 0
  call void @__clang_call_terminate(ptr %5) #21
  unreachable

_ZN7testing13ThrowingValueILNS_8TypeSpecE0EED2Ev.exit3: ; preds = %arraydestroy.body45
  %arraydestroy.done48 = icmp eq ptr %arraydestroy.element47, %ref.tmp20
  br i1 %arraydestroy.done48, label %arraydestroy.done49, label %arraydestroy.body45

arraydestroy.done49:                              ; preds = %_ZN7testing13ThrowingValueILNS_8TypeSpecE0EED2Ev.exit3
  ret void

lpad:                                             ; preds = %entry
  %6 = landingpad { ptr, i32 }
          cleanup
  invoke void @_ZN7testing19exceptions_internal18ConstructorTracker16ObjectDestructedEPv(ptr noundef nonnull %ref.tmp3)
          to label %eh.resume unwind label %terminate.lpad.i.i4

terminate.lpad.i.i4:                              ; preds = %lpad
  %7 = landingpad { ptr, i32 }
          catch ptr null
  %8 = extractvalue { ptr, i32 } %7, 0
  call void @__clang_call_terminate(ptr %8) #21
  unreachable

lpad6:                                            ; preds = %invoke.cont4
  %9 = landingpad { ptr, i32 }
          cleanup
  %10 = getelementptr inbounds i8, ptr %ref.tmp3, i64 8
  br label %arraydestroy.body14

arraydestroy.body14:                              ; preds = %_ZN7testing13ThrowingValueILNS_8TypeSpecE0EED2Ev.exit7, %lpad6
  %arraydestroy.elementPast15 = phi ptr [ %10, %lpad6 ], [ %arraydestroy.element16, %_ZN7testing13ThrowingValueILNS_8TypeSpecE0EED2Ev.exit7 ]
  %arraydestroy.element16 = getelementptr inbounds i8, ptr %arraydestroy.elementPast15, i64 -4
  invoke void @_ZN7testing19exceptions_internal18ConstructorTracker16ObjectDestructedEPv(ptr noundef nonnull %arraydestroy.element16)
          to label %_ZN7testing13ThrowingValueILNS_8TypeSpecE0EED2Ev.exit7 unwind label %terminate.lpad.i.i6

terminate.lpad.i.i6:                              ; preds = %arraydestroy.body14
  %11 = landingpad { ptr, i32 }
          catch ptr null
  %12 = extractvalue { ptr, i32 } %11, 0
  call void @__clang_call_terminate(ptr %12) #21
  unreachable

_ZN7testing13ThrowingValueILNS_8TypeSpecE0EED2Ev.exit7: ; preds = %arraydestroy.body14
  %arraydestroy.done17 = icmp eq ptr %arraydestroy.element16, %ref.tmp3
  br i1 %arraydestroy.done17, label %eh.resume, label %arraydestroy.body14

lpad23:                                           ; preds = %invoke.cont30, %invoke.cont28, %invoke.cont26, %arraydestroy.done12
  %arrayinit.endOfInit22.0 = phi ptr [ %arrayinit.element31, %invoke.cont30 ], [ %arrayinit.element29, %invoke.cont28 ], [ %arrayinit.element27, %invoke.cont26 ], [ %arrayinit.element25, %arraydestroy.done12 ]
  %13 = landingpad { ptr, i32 }
          cleanup
  br label %arraydestroy.body34

arraydestroy.body34:                              ; preds = %lpad23, %_ZN7testing13ThrowingValueILNS_8TypeSpecE0EED2Ev.exit9
  %arraydestroy.elementPast35 = phi ptr [ %arrayinit.endOfInit22.0, %lpad23 ], [ %arraydestroy.element36, %_ZN7testing13ThrowingValueILNS_8TypeSpecE0EED2Ev.exit9 ]
  %arraydestroy.element36 = getelementptr inbounds i8, ptr %arraydestroy.elementPast35, i64 -4
  invoke void @_ZN7testing19exceptions_internal18ConstructorTracker16ObjectDestructedEPv(ptr noundef nonnull %arraydestroy.element36)
          to label %_ZN7testing13ThrowingValueILNS_8TypeSpecE0EED2Ev.exit9 unwind label %terminate.lpad.i.i8

terminate.lpad.i.i8:                              ; preds = %arraydestroy.body34
  %14 = landingpad { ptr, i32 }
          catch ptr null
  %15 = extractvalue { ptr, i32 } %14, 0
  call void @__clang_call_terminate(ptr %15) #21
  unreachable

_ZN7testing13ThrowingValueILNS_8TypeSpecE0EED2Ev.exit9: ; preds = %arraydestroy.body34
  %arraydestroy.done37 = icmp eq ptr %arraydestroy.element36, %ref.tmp20
  br i1 %arraydestroy.done37, label %eh.resume, label %arraydestroy.body34

lpad42:                                           ; preds = %invoke.cont32
  %16 = landingpad { ptr, i32 }
          cleanup
  %17 = getelementptr inbounds i8, ptr %ref.tmp20, i64 20
  br label %arraydestroy.body51

arraydestroy.body51:                              ; preds = %_ZN7testing13ThrowingValueILNS_8TypeSpecE0EED2Ev.exit11, %lpad42
  %arraydestroy.elementPast52 = phi ptr [ %17, %lpad42 ], [ %arraydestroy.element53, %_ZN7testing13ThrowingValueILNS_8TypeSpecE0EED2Ev.exit11 ]
  %arraydestroy.element53 = getelementptr inbounds i8, ptr %arraydestroy.elementPast52, i64 -4
  invoke void @_ZN7testing19exceptions_internal18ConstructorTracker16ObjectDestructedEPv(ptr noundef nonnull %arraydestroy.element53)
          to label %_ZN7testing13ThrowingValueILNS_8TypeSpecE0EED2Ev.exit11 unwind label %terminate.lpad.i.i10

terminate.lpad.i.i10:                             ; preds = %arraydestroy.body51
  %18 = landingpad { ptr, i32 }
          catch ptr null
  %19 = extractvalue { ptr, i32 } %18, 0
  call void @__clang_call_terminate(ptr %19) #21
  unreachable

_ZN7testing13ThrowingValueILNS_8TypeSpecE0EED2Ev.exit11: ; preds = %arraydestroy.body51
  %arraydestroy.done54 = icmp eq ptr %arraydestroy.element53, %ref.tmp20
  br i1 %arraydestroy.done54, label %eh.resume, label %arraydestroy.body51

eh.resume:                                        ; preds = %_ZN7testing13ThrowingValueILNS_8TypeSpecE0EED2Ev.exit7, %_ZN7testing13ThrowingValueILNS_8TypeSpecE0EED2Ev.exit9, %_ZN7testing13ThrowingValueILNS_8TypeSpecE0EED2Ev.exit11, %lpad
  %.pn = phi { ptr, i32 } [ %6, %lpad ], [ %16, %_ZN7testing13ThrowingValueILNS_8TypeSpecE0EED2Ev.exit11 ], [ %13, %_ZN7testing13ThrowingValueILNS_8TypeSpecE0EED2Ev.exit9 ], [ %9, %_ZN7testing13ThrowingValueILNS_8TypeSpecE0EED2Ev.exit7 ]
  resume { ptr, i32 } %.pn
}